; ModuleID = '54/422.c'
source_filename = "54/422.c"
target datalayout = "e-m:e-p270:32:32-p271:32:32-p272:64:64-i64:64-f80:128-n8:16:32:64-S128"
target triple = "x86_64-pc-linux-gnu"

@.str = private unnamed_addr constant [6 x i8] c"%d %d\00", align 1
@.str.1 = private unnamed_addr constant [3 x i8] c"%d\00", align 1

; Function Attrs: noinline nounwind uwtable
define dso_local void @main() #0 {
  %1 = alloca i32, align 4
  %2 = alloca i32, align 4
  %3 = alloca i32, align 4
  %4 = alloca i32, align 4
  %5 = alloca i32, align 4
  %6 = alloca i32, align 4
  %7 = call i32 (i8*, ...) @__isoc99_scanf(i8* getelementptr inbounds ([6 x i8], [6 x i8]* @.str, i64 0, i64 0), i32* %6, i32* %4)
  %8 = load i32, i32* %6, align 4
  store i32 %8, i32* %3, align 4
  br label %9

9:                                                ; preds = %48, %0
  %10 = load i32, i32* %3, align 4
  store i32 %10, i32* %1, align 4
  store i32 1, i32* %2, align 4
  br label %11

11:                                               ; preds = %37, %9
  %12 = load i32, i32* %2, align 4
  %13 = load i32, i32* %6, align 4
  %14 = icmp sle i32 %12, %13
  br i1 %14, label %15, label %40

15:                                               ; preds = %11
  %16 = load i32, i32* %1, align 4
  %17 = load i32, i32* %6, align 4
  %18 = icmp slt i32 %16, %17
  br i1 %18, label %19, label %20

19:                                               ; preds = %15
  br label %40

20:                                               ; preds = %15
  %21 = load i32, i32* %1, align 4
  %22 = load i32, i32* %6, align 4
  %23 = srem i32 %21, %22
  store i32 %23, i32* %5, align 4
  %24 = load i32, i32* %5, align 4
  %25 = load i32, i32* %4, align 4
  %26 = icmp ne i32 %24, %25
  br i1 %26, label %27, label %28

27:                                               ; preds = %20
  br label %40

28:                                               ; preds = %20
  %29 = load i32, i32* %1, align 4
  %30 = load i32, i32* %4, align 4
  %31 = sub nsw i32 %29, %30
  %32 = load i32, i32* %6, align 4
  %33 = sub nsw i32 %32, 1
  %34 = mul nsw i32 %31, %33
  %35 = load i32, i32* %6, align 4
  %36 = sdiv i32 %34, %35
  store i32 %36, i32* %1, align 4
  br label %37

37:                                               ; preds = %28
  %38 = load i32, i32* %2, align 4
  %39 = add nsw i32 %38, 1
  store i32 %39, i32* %2, align 4
  br label %11

40:                                               ; preds = %27, %19, %11
  %41 = load i32, i32* %2, align 4
  %42 = load i32, i32* %6, align 4
  %43 = icmp sgt i32 %41, %42
  br i1 %43, label %44, label %47

44:                                               ; preds = %40
  %45 = load i32, i32* %3, align 4
  %46 = call i32 (i8*, ...) @printf(i8* getelementptr inbounds ([3 x i8], [3 x i8]* @.str.1, i64 0, i64 0), i32 %45)
  br label %51

47:                                               ; preds = %40
  br label %48

48:                                               ; preds = %47
  %49 = load i32, i32* %3, align 4
  %50 = add nsw i32 %49, 1
  store i32 %50, i32* %3, align 4
  br label %9

51:                                               ; preds = %44
  ret void
}

declare dso_local i32 @__isoc99_scanf(i8*, ...) #1

declare dso_local i32 @printf(i8*, ...) #1


!llvm.module.flags = !{!0}
!llvm.ident = !{!1}

!0 = !{i32 1, !"wchar_size", i32 4}
!1 = !{!"clang version 10.0.0-4ubuntu1 "}
